	.file	"main.c"
	.text
.Ltext0:
	.cfi_sections	.debug_frame
	.globl	MyStrCLen
	.def	MyStrCLen;	.scl	2;	.type	32;	.endef
	.seh_proc	MyStrCLen
MyStrCLen:
.LFB17:
	.file 1 "D:/Facultad en Cuarentena/Programacion I/Ejercicios/Unidad 2/Ejercicio_16/main.c"
	.loc 1 4 1
	.cfi_startproc
	pushq	%rbp
	.seh_pushreg	%rbp
	.cfi_def_cfa_offset 16
	.cfi_offset 6, -16
	movq	%rsp, %rbp
	.seh_setframe	%rbp, 0
	.cfi_def_cfa_register 6
	subq	$16, %rsp
	.seh_stackalloc	16
	.seh_endprologue
	movq	%rcx, 16(%rbp)
	movl	%edx, %eax
	movb	%al, 24(%rbp)
	.loc 1 9 11
	movq	16(%rbp), %rax
	movq	%rax, -8(%rbp)
	.loc 1 10 9
	movl	$0, -12(%rbp)
	.loc 1 12 10
	jmp	.L2
.L4:
	.loc 1 14 14
	addl	$1, -12(%rbp)
	.loc 1 15 12
	addq	$1, -8(%rbp)
.L2:
	.loc 1 12 11
	movq	-8(%rbp), %rax
	movzbl	(%rax), %eax
	.loc 1 12 10
	testb	%al, %al
	je	.L3
	.loc 1 12 19 discriminator 1
	movq	-8(%rbp), %rax
	movzbl	(%rax), %eax
	.loc 1 12 16 discriminator 1
	cmpb	$32, %al
	jne	.L4
.L3:
	.loc 1 18 12
	movl	-12(%rbp), %eax
	.loc 1 19 1
	addq	$16, %rsp
	popq	%rbp
	.cfi_restore 6
	.cfi_def_cfa 7, 8
	ret
	.cfi_endproc
.LFE17:
	.seh_endproc
	.def	__main;	.scl	2;	.type	32;	.endef
	.section .rdata,"dr"
.LC0:
	.ascii "rt\0"
.LC1:
	.ascii "archtext.txt\0"
.LC2:
	.ascii "Ingrese subcadena: \0"
	.align 8
.LC3:
	.ascii "Formadas por una sola letra: %d\12Formadas por una cantidad par de letras: %d\12Comienzan con 'n': %d\12Comienzan con %s: %d\12Tienen mas de tres vocales: %d\12Comienzan y terminan con vocales: %d\12Contienen digitos: %d\12Solo estan formadas por digitos: %d\12Son palindromos: %d\0"
	.text
	.globl	main
	.def	main;	.scl	2;	.type	32;	.endef
	.seh_proc	main
main:
.LFB18:
	.loc 1 29 1
	.cfi_startproc
	pushq	%rbp
	.seh_pushreg	%rbp
	.cfi_def_cfa_offset 16
	.cfi_offset 6, -16
	subq	$304, %rsp
	.seh_stackalloc	304
	.cfi_def_cfa_offset 320
	leaq	128(%rsp), %rbp
	.seh_setframe	%rbp, 128
	.cfi_def_cfa 6, 192
	.seh_endprologue
	.loc 1 29 1
	call	__main
.LVL0:
	.loc 1 32 9
	movl	$0, 148(%rbp)
	.loc 1 32 30
	movl	$0, 144(%rbp)
	.loc 1 33 9
	movl	$0, 140(%rbp)
	.loc 1 33 29
	movl	$0, 136(%rbp)
	.loc 1 34 9
	movl	$0, 132(%rbp)
	.loc 1 34 31
	movl	$0, 128(%rbp)
	.loc 1 35 9
	movl	$0, 124(%rbp)
	.loc 1 35 30
	movl	$0, 120(%rbp)
	.loc 1 36 9
	movl	$0, 116(%rbp)
	.loc 1 37 9
	movl	$0, 112(%rbp)
	.loc 1 37 33
	movl	$0, 108(%rbp)
	.loc 1 37 50
	movl	$0, 104(%rbp)
	.loc 1 38 9
	movl	$0, 100(%rbp)
	.loc 1 38 26
	movl	$0, 92(%rbp)
	.loc 1 40 10
	leaq	.LC0(%rip), %rdx
	leaq	.LC1(%rip), %rcx
	call	fopen
	movq	%rax, 80(%rbp)
	.loc 1 42 7
	cmpq	$0, 80(%rbp)
	jne	.L7
	.loc 1 43 9
	movl	$1, %ecx
	call	exit
.L7:
	.loc 1 45 5
	leaq	.LC2(%rip), %rcx
	call	puts
	.loc 1 46 5
	leaq	71(%rbp), %rax
	movq	%rax, %rcx
	call	gets
	.loc 1 48 17
	leaq	71(%rbp), %rax
	movq	%rax, %rcx
	call	strlen
	.loc 1 48 15
	movl	%eax, 76(%rbp)
	.loc 1 52 10
	jmp	.L8
.L27:
	.loc 1 54 17
	leaq	-32(%rbp), %rax
	movq	%rax, 160(%rbp)
	.loc 1 55 17
	leaq	71(%rbp), %rax
	movq	%rax, 168(%rbp)
	.loc 1 57 22
	movq	160(%rbp), %rax
	movl	$32, %edx
	movq	%rax, %rcx
	call	MyStrCLen
	movl	%eax, 92(%rbp)
	.loc 1 58 24
	movq	160(%rbp), %rax
	movl	$32, %edx
	movq	%rax, %rcx
	call	strchr
	.loc 1 58 21
	subq	$1, %rax
	movq	%rax, 152(%rbp)
	.loc 1 60 14
	jmp	.L9
.L20:
	.loc 1 62 25
	movq	160(%rbp), %rax
	subq	$1, %rax
	.loc 1 62 16
	movzbl	(%rax), %eax
	.loc 1 62 15
	cmpb	$32, %al
	jne	.L10
	.loc 1 62 48 discriminator 1
	movq	160(%rbp), %rax
	addq	$1, %rax
	.loc 1 62 39 discriminator 1
	movzbl	(%rax), %eax
	.loc 1 62 36 discriminator 1
	cmpb	$32, %al
	jne	.L10
	.loc 1 63 32
	addl	$1, 148(%rbp)
.L10:
	.loc 1 65 16
	movq	152(%rbp), %rax
	movzbl	(%rax), %edx
	.loc 1 65 32
	movq	160(%rbp), %rax
	movzbl	(%rax), %eax
	.loc 1 65 15
	cmpb	%al, %dl
	jne	.L11
	.loc 1 67 28
	subq	$1, 152(%rbp)
	.loc 1 68 30
	movl	$1, 96(%rbp)
	jmp	.L12
.L11:
	.loc 1 71 30
	movl	$0, 96(%rbp)
.L12:
	.loc 1 73 16
	movq	160(%rbp), %rax
	movzbl	(%rax), %eax
	.loc 1 73 15
	cmpb	$110, %al
	jne	.L13
	.loc 1 73 44 discriminator 1
	movq	160(%rbp), %rax
	subq	$1, %rax
	.loc 1 73 35 discriminator 1
	movzbl	(%rax), %eax
	.loc 1 73 32 discriminator 1
	cmpb	$32, %al
	jne	.L13
	.loc 1 74 31
	addl	$1, 140(%rbp)
.L13:
	.loc 1 76 16
	movq	160(%rbp), %rax
	movzbl	(%rax), %edx
	.loc 1 76 28
	movq	168(%rbp), %rax
	movzbl	(%rax), %eax
	.loc 1 76 15
	cmpb	%al, %dl
	jne	.L14
	.loc 1 77 24
	addq	$1, 168(%rbp)
	jmp	.L15
.L14:
	.loc 1 78 21
	movq	168(%rbp), %rax
	movzbl	(%rax), %eax
	.loc 1 78 20
	testb	%al, %al
	jne	.L15
	.loc 1 79 33
	addl	$1, 136(%rbp)
.L15:
	.loc 1 81 19
	movq	160(%rbp), %rax
	movzbl	(%rax), %eax
	.loc 1 81 15
	cmpb	$65, %al
	je	.L16
	.loc 1 81 40 discriminator 1
	movq	160(%rbp), %rax
	movzbl	(%rax), %eax
	.loc 1 81 36 discriminator 1
	cmpb	$69, %al
	je	.L16
	.loc 1 81 61 discriminator 2
	movq	160(%rbp), %rax
	movzbl	(%rax), %eax
	.loc 1 81 57 discriminator 2
	cmpb	$73, %al
	je	.L16
	.loc 1 81 82 discriminator 3
	movq	160(%rbp), %rax
	movzbl	(%rax), %eax
	.loc 1 81 78 discriminator 3
	cmpb	$79, %al
	je	.L16
	.loc 1 81 103 discriminator 4
	movq	160(%rbp), %rax
	movzbl	(%rax), %eax
	.loc 1 81 99 discriminator 4
	cmpb	$85, %al
	je	.L16
	.loc 1 81 124 discriminator 5
	movq	160(%rbp), %rax
	movzbl	(%rax), %eax
	.loc 1 81 120 discriminator 5
	cmpb	$97, %al
	je	.L16
	.loc 1 81 145 discriminator 6
	movq	160(%rbp), %rax
	movzbl	(%rax), %eax
	.loc 1 81 141 discriminator 6
	cmpb	$101, %al
	je	.L16
	.loc 1 81 166 discriminator 7
	movq	160(%rbp), %rax
	movzbl	(%rax), %eax
	.loc 1 81 162 discriminator 7
	cmpb	$105, %al
	je	.L16
	.loc 1 81 187 discriminator 8
	movq	160(%rbp), %rax
	movzbl	(%rax), %eax
	.loc 1 81 183 discriminator 8
	cmpb	$111, %al
	je	.L16
	.loc 1 81 208 discriminator 9
	movq	160(%rbp), %rax
	movzbl	(%rax), %eax
	.loc 1 81 16 discriminator 9
	cmpb	$117, %al
	je	.L16
	.loc 1 82 28
	addl	$1, 108(%rbp)
.L16:
	.loc 1 84 25
	movq	160(%rbp), %rax
	subq	$1, %rax
	.loc 1 84 16
	movzbl	(%rax), %eax
	.loc 1 84 15
	cmpb	$32, %al
	jne	.L17
	.loc 1 84 42 discriminator 1
	movq	160(%rbp), %rax
	movzbl	(%rax), %eax
	.loc 1 84 36 discriminator 1
	cmpb	$65, %al
	je	.L17
	.loc 1 84 63 discriminator 2
	movq	160(%rbp), %rax
	movzbl	(%rax), %eax
	.loc 1 84 59 discriminator 2
	cmpb	$69, %al
	je	.L17
	.loc 1 84 84 discriminator 3
	movq	160(%rbp), %rax
	movzbl	(%rax), %eax
	.loc 1 84 80 discriminator 3
	cmpb	$73, %al
	je	.L17
	.loc 1 84 105 discriminator 4
	movq	160(%rbp), %rax
	movzbl	(%rax), %eax
	.loc 1 84 101 discriminator 4
	cmpb	$79, %al
	je	.L17
	.loc 1 84 126 discriminator 5
	movq	160(%rbp), %rax
	movzbl	(%rax), %eax
	.loc 1 84 122 discriminator 5
	cmpb	$85, %al
	je	.L17
	.loc 1 84 147 discriminator 6
	movq	160(%rbp), %rax
	movzbl	(%rax), %eax
	.loc 1 84 143 discriminator 6
	cmpb	$97, %al
	je	.L17
	.loc 1 84 168 discriminator 7
	movq	160(%rbp), %rax
	movzbl	(%rax), %eax
	.loc 1 84 164 discriminator 7
	cmpb	$101, %al
	je	.L17
	.loc 1 84 189 discriminator 8
	movq	160(%rbp), %rax
	movzbl	(%rax), %eax
	.loc 1 84 185 discriminator 8
	cmpb	$105, %al
	je	.L17
	.loc 1 84 210 discriminator 9
	movq	160(%rbp), %rax
	movzbl	(%rax), %eax
	.loc 1 84 206 discriminator 9
	cmpb	$111, %al
	je	.L17
	.loc 1 84 231 discriminator 10
	movq	160(%rbp), %rax
	movzbl	(%rax), %eax
	.loc 1 84 36 discriminator 10
	cmpb	$117, %al
	je	.L17
	.loc 1 85 29
	movl	$1, 104(%rbp)
.L17:
	.loc 1 87 19
	movq	160(%rbp), %rax
	movzbl	(%rax), %eax
	.loc 1 87 15
	cmpb	$47, %al
	jle	.L18
	.loc 1 87 39 discriminator 1
	movq	160(%rbp), %rax
	movzbl	(%rax), %eax
	.loc 1 87 16 discriminator 1
	cmpb	$57, %al
	jle	.L19
.L18:
	.loc 1 88 28
	addl	$1, 100(%rbp)
.L19:
	.loc 1 90 20
	addl	$1, 112(%rbp)
	.loc 1 91 20
	addq	$1, 160(%rbp)
.L9:
	.loc 1 60 15
	movq	160(%rbp), %rax
	movzbl	(%rax), %eax
	.loc 1 60 14
	cmpb	$32, %al
	jne	.L20
	.loc 1 94 24
	movl	112(%rbp), %eax
	andl	$1, %eax
	.loc 1 94 11
	testl	%eax, %eax
	jne	.L21
	.loc 1 95 27
	addl	$1, 144(%rbp)
.L21:
	.loc 1 97 11
	cmpl	$3, 108(%rbp)
	jle	.L22
	.loc 1 98 29
	addl	$1, 132(%rbp)
.L22:
	.loc 1 100 11
	cmpl	$0, 104(%rbp)
	je	.L23
	.loc 1 100 39 discriminator 1
	movq	160(%rbp), %rax
	subq	$1, %rax
	.loc 1 100 30 discriminator 1
	movzbl	(%rax), %eax
	.loc 1 100 24 discriminator 1
	cmpb	$65, %al
	je	.L23
	.loc 1 100 64 discriminator 2
	movq	160(%rbp), %rax
	subq	$1, %rax
	.loc 1 100 55 discriminator 2
	movzbl	(%rax), %eax
	.loc 1 100 51 discriminator 2
	cmpb	$69, %al
	je	.L23
	.loc 1 100 89 discriminator 3
	movq	160(%rbp), %rax
	subq	$1, %rax
	.loc 1 100 80 discriminator 3
	movzbl	(%rax), %eax
	.loc 1 100 76 discriminator 3
	cmpb	$73, %al
	je	.L23
	.loc 1 100 114 discriminator 4
	movq	160(%rbp), %rax
	subq	$1, %rax
	.loc 1 100 105 discriminator 4
	movzbl	(%rax), %eax
	.loc 1 100 101 discriminator 4
	cmpb	$79, %al
	je	.L23
	.loc 1 100 139 discriminator 5
	movq	160(%rbp), %rax
	subq	$1, %rax
	.loc 1 100 130 discriminator 5
	movzbl	(%rax), %eax
	.loc 1 100 126 discriminator 5
	cmpb	$85, %al
	je	.L23
	.loc 1 100 164 discriminator 6
	movq	160(%rbp), %rax
	subq	$1, %rax
	.loc 1 100 155 discriminator 6
	movzbl	(%rax), %eax
	.loc 1 100 151 discriminator 6
	cmpb	$97, %al
	je	.L23
	.loc 1 100 189 discriminator 7
	movq	160(%rbp), %rax
	subq	$1, %rax
	.loc 1 100 180 discriminator 7
	movzbl	(%rax), %eax
	.loc 1 100 176 discriminator 7
	cmpb	$101, %al
	je	.L23
	.loc 1 100 214 discriminator 8
	movq	160(%rbp), %rax
	subq	$1, %rax
	.loc 1 100 205 discriminator 8
	movzbl	(%rax), %eax
	.loc 1 100 201 discriminator 8
	cmpb	$105, %al
	je	.L23
	.loc 1 100 239 discriminator 9
	movq	160(%rbp), %rax
	subq	$1, %rax
	.loc 1 100 230 discriminator 9
	movzbl	(%rax), %eax
	.loc 1 100 226 discriminator 9
	cmpb	$111, %al
	je	.L23
	.loc 1 100 264 discriminator 10
	movq	160(%rbp), %rax
	subq	$1, %rax
	.loc 1 100 255 discriminator 10
	movzbl	(%rax), %eax
	.loc 1 100 24 discriminator 10
	cmpb	$117, %al
	je	.L23
	.loc 1 101 28
	addl	$1, 128(%rbp)
.L23:
	.loc 1 103 11
	movl	92(%rbp), %eax
	cmpl	100(%rbp), %eax
	jne	.L24
	.loc 1 104 29
	addl	$1, 120(%rbp)
	jmp	.L25
.L24:
	.loc 1 105 16
	cmpl	$0, 100(%rbp)
	jle	.L25
	.loc 1 106 28
	addl	$1, 124(%rbp)
.L25:
	.loc 1 108 11
	cmpl	$0, 96(%rbp)
	je	.L26
	.loc 1 109 30
	addl	$1, 116(%rbp)
.L26:
	.loc 1 111 20
	movl	$0, 92(%rbp)
	.loc 1 112 21
	movl	$0, 108(%rbp)
	.loc 1 113 17
	movl	$0, 112(%rbp)
	.loc 1 115 17
	movl	76(%rbp), %eax
	cltq
	negq	%rax
	addq	%rax, 168(%rbp)
	.loc 1 116 16
	addq	$1, 160(%rbp)
.L8:
	.loc 1 52 11
	movq	80(%rbp), %rdx
	leaq	-32(%rbp), %rax
	movq	%rdx, %r8
	movl	$100, %edx
	movq	%rax, %rcx
	call	fgets
	.loc 1 52 10
	testq	%rax, %rax
	jne	.L27
	.loc 1 119 5
	movl	140(%rbp), %r8d
	movl	144(%rbp), %ecx
	movl	148(%rbp), %edx
	movl	116(%rbp), %eax
	movl	%eax, 80(%rsp)
	movl	120(%rbp), %eax
	movl	%eax, 72(%rsp)
	movl	124(%rbp), %eax
	movl	%eax, 64(%rsp)
	movl	128(%rbp), %eax
	movl	%eax, 56(%rsp)
	movl	132(%rbp), %eax
	movl	%eax, 48(%rsp)
	movl	136(%rbp), %eax
	movl	%eax, 40(%rsp)
	leaq	71(%rbp), %rax
	movq	%rax, 32(%rsp)
	movl	%r8d, %r9d
	movl	%ecx, %r8d
	leaq	.LC3(%rip), %rcx
	call	printf
	.loc 1 134 5
	movq	80(%rbp), %rax
	movq	%rax, %rcx
	call	fclose
	.loc 1 136 12
	movl	$0, %eax
	.loc 1 137 1
	addq	$304, %rsp
	popq	%rbp
	.cfi_restore 6
	.cfi_def_cfa 7, -296
	ret
	.cfi_endproc
.LFE18:
	.seh_endproc
.Letext0:
	.file 2 "C:/Program Files/CodeBlocks/MinGW/x86_64-w64-mingw32/include/stdio.h"
	.file 3 "C:/Program Files/CodeBlocks/MinGW/x86_64-w64-mingw32/include/crtdefs.h"
	.file 4 "C:/Program Files/CodeBlocks/MinGW/x86_64-w64-mingw32/include/stdlib.h"
	.file 5 "C:/Program Files/CodeBlocks/MinGW/x86_64-w64-mingw32/include/malloc.h"