	.file	"funciones.c"
	.text
.Ltext0:
	.cfi_sections	.debug_frame
	.globl	Mystrstr
	.def	Mystrstr;	.scl	2;	.type	32;	.endef
	.seh_proc	Mystrstr
Mystrstr:
.LFB17:
	.file 1 "D:/Facultad en Cuarentena/Programacion I/Ejercicios/Unidad 2/Ejercicio_15/funciones.c"
	.loc 1 7 1
	.cfi_startproc
	pushq	%rbp
	.seh_pushreg	%rbp
	.cfi_def_cfa_offset 16
	.cfi_offset 6, -16
	movq	%rsp, %rbp
	.seh_setframe	%rbp, 0
	.cfi_def_cfa_register 6
	subq	$32, %rsp
	.seh_stackalloc	32
	.seh_endprologue
	movq	%rcx, 16(%rbp)
	movq	%rdx, 24(%rbp)
	movq	%r8, 32(%rbp)
	.loc 1 8 7
	cmpq	$0, 24(%rbp)
	je	.L2
	.loc 1 8 21 discriminator 1
	movq	24(%rbp), %rax
	movzbl	(%rax), %eax
	.loc 1 8 18 discriminator 1
	testb	%al, %al
	jne	.L3
.L2:
	.loc 1 9 16
	movq	16(%rbp), %rax
	jmp	.L4
.L3:
	.loc 1 12 9
	movl	$0, -20(%rbp)
	.loc 1 14 10
	movq	16(%rbp), %rax
	movq	%rax, -8(%rbp)
	.loc 1 15 10
	movq	24(%rbp), %rax
	movq	%rax, -16(%rbp)
	.loc 1 17 10
	jmp	.L5
.L9:
	.loc 1 19 12
	movq	-8(%rbp), %rax
	movzbl	(%rax), %edx
	.loc 1 19 21
	movq	-16(%rbp), %rax
	movzbl	(%rax), %eax
	.loc 1 19 11
	cmpb	%al, %dl
	jne	.L6
	.loc 1 21 17
	addq	$1, -16(%rbp)
	.loc 1 22 19
	addl	$1, -20(%rbp)
	jmp	.L7
.L6:
	.loc 1 26 20
	movl	$0, -20(%rbp)
	.loc 1 27 18
	movq	24(%rbp), %rax
	movq	%rax, -16(%rbp)
.L7:
	.loc 1 30 13
	addq	$1, -8(%rbp)
	.loc 1 31 10
	movq	32(%rbp), %rax
	movl	(%rax), %eax
	.loc 1 31 15
	leal	1(%rax), %edx
	movq	32(%rbp), %rax
	movl	%edx, (%rax)
.L5:
	.loc 1 17 11
	movq	-16(%rbp), %rax
	movzbl	(%rax), %eax
	.loc 1 17 10
	testb	%al, %al
	je	.L8
	.loc 1 17 20 discriminator 1
	movq	-8(%rbp), %rax
	movzbl	(%rax), %eax
	.loc 1 17 17 discriminator 1
	testb	%al, %al
	jne	.L9
.L8:
	.loc 1 34 7
	cmpl	$0, -20(%rbp)
	je	.L10
	.loc 1 36 16
	movq	32(%rbp), %rax
	movl	(%rax), %eax
	subl	-20(%rbp), %eax
	movq	32(%rbp), %rdx
	movl	%eax, (%rdx)
	.loc 1 37 28
	movl	-20(%rbp), %eax
	cltq
	negq	%rax
	movq	%rax, %rdx
	movq	-8(%rbp), %rax
	addq	%rdx, %rax
	jmp	.L4
.L10:
	.loc 1 41 16
	movq	32(%rbp), %rax
	movl	$0, (%rax)
	.loc 1 42 15
	movl	$0, %eax
.L4:
	.loc 1 44 1
	addq	$32, %rsp
	popq	%rbp
	.cfi_restore 6
	.cfi_def_cfa 7, 8
	ret
	.cfi_endproc
.LFE17:
	.seh_endproc
	.section .rdata,"dr"
.LC0:
	.ascii "wt\0"
.LC1:
	.ascii "archtext.txt\0"
	.align 8
.LC2:
	.ascii "La wea similarity --- condensador\12    Hacia donde se dirige la humanidad?\12Realmente hemos evolucionado amigos!?\12se, calculo que se\12-- usted pergola se la vive en el reino dol jogete\12CALAMARINO, MI RIVAL DE TODA LA VIDA\12\0"
	.text
	.globl	generarArchivo
	.def	generarArchivo;	.scl	2;	.type	32;	.endef
	.seh_proc	generarArchivo
generarArchivo:
.LFB18:
	.loc 1 47 1
	.cfi_startproc
	pushq	%rbp
	.seh_pushreg	%rbp
	.cfi_def_cfa_offset 16
	.cfi_offset 6, -16
	movq	%rsp, %rbp
	.seh_setframe	%rbp, 0
	.cfi_def_cfa_register 6
	subq	$48, %rsp
	.seh_stackalloc	48
	.seh_endprologue
	.loc 1 50 10
	leaq	.LC0(%rip), %rdx
	leaq	.LC1(%rip), %rcx
	call	fopen
	movq	%rax, -8(%rbp)
	.loc 1 52 7
	cmpq	$0, -8(%rbp)
	jne	.L12
	.loc 1 53 9
	movl	$1, %ecx
	call	exit
.L12:
	.loc 1 55 5
	movq	-8(%rbp), %rax
	movq	%rax, %r9
	movl	$219, %r8d
	movl	$1, %edx
	leaq	.LC2(%rip), %rcx
	call	fwrite
	.loc 1 62 5
	movq	-8(%rbp), %rax
	movq	%rax, %rcx
	call	fclose
	.loc 1 63 1
	nop
	addq	$48, %rsp
	popq	%rbp
	.cfi_restore 6
	.cfi_def_cfa 7, 8
	ret
	.cfi_endproc
.LFE18:
	.seh_endproc
	.section .rdata,"dr"
.LC3:
	.ascii "a+t\0"
	.align 8
.LC4:
	.ascii "QUISEAWEA ESA WEAAAAA\12 Segurisimo ese lugar, eh!\12 se anda diciendo por ahi...\12se tu mismo o te cojen amiguito!\0"
	.text
	.globl	agregarTexto
	.def	agregarTexto;	.scl	2;	.type	32;	.endef
	.seh_proc	agregarTexto
agregarTexto:
.LFB19:
	.loc 1 66 1
	.cfi_startproc
	pushq	%rbp
	.seh_pushreg	%rbp
	.cfi_def_cfa_offset 16
	.cfi_offset 6, -16
	movq	%rsp, %rbp
	.seh_setframe	%rbp, 0
	.cfi_def_cfa_register 6
	subq	$48, %rsp
	.seh_stackalloc	48
	.seh_endprologue
	.loc 1 69 10
	leaq	.LC3(%rip), %rdx
	leaq	.LC1(%rip), %rcx
	call	fopen
	movq	%rax, -8(%rbp)
	.loc 1 71 7
	cmpq	$0, -8(%rbp)
	jne	.L14
	.loc 1 72 9
	movl	$1, %ecx
	call	exit
.L14:
	.loc 1 74 5
	movq	-8(%rbp), %rax
	movq	%rax, %r9
	movl	$110, %r8d
	movl	$1, %edx
	leaq	.LC4(%rip), %rcx
	call	fwrite
	.loc 1 78 5
	movq	-8(%rbp), %rax
	movq	%rax, %rcx
	call	fclose
	.loc 1 80 1
	nop
	addq	$48, %rsp
	popq	%rbp
	.cfi_restore 6
	.cfi_def_cfa 7, 8
	ret
	.cfi_endproc
.LFE19:
	.seh_endproc
.Letext0:
	.file 2 "C:/Program Files/CodeBlocks/MinGW/x86_64-w64-mingw32/include/crtdefs.h"
	.file 3 "C:/Program Files/CodeBlocks/MinGW/x86_64-w64-mingw32/include/stdio.h"
	.file 4 "C:/Program Files/CodeBlocks/MinGW/x86_64-w64-mingw32/include/stdlib.h"
	.file 5 "C:/Program Files/CodeBlocks/MinGW/x86_64-w64-mingw32/include/malloc.h"
	.file 6 "C:/Program Files/CodeBlocks/MinGW/x86_64-w64-mingw32/include/ctype.h"