	.file	"main.c"
	.text
.Ltext0:
	.cfi_sections	.debug_frame
	.def	__main;	.scl	2;	.type	32;	.endef
	.section .rdata,"dr"
.LC0:
	.ascii "se\0"
.LC1:
	.ascii "rt\0"
.LC2:
	.ascii "archtext.txt\0"
.LC3:
	.ascii "Nro Linea: %d - Pos: %d\12\0"
.LC4:
	.ascii "PAUSE\0"
	.text
	.globl	main
	.def	main;	.scl	2;	.type	32;	.endef
	.seh_proc	main
main:
.LFB17:
	.file 1 "D:/Facultad en Cuarentena/Programacion I/Ejercicios/Unidad 2/Ejercicio_15/main.c"
	.loc 1 4 1
	.cfi_startproc
	pushq	%rbp
	.seh_pushreg	%rbp
	.cfi_def_cfa_offset 16
	.cfi_offset 6, -16
	movq	%rsp, %rbp
	.seh_setframe	%rbp, 0
	.cfi_def_cfa_register 6
	subq	$192, %rsp
	.seh_stackalloc	192
	.seh_endprologue
	movl	%ecx, 16(%rbp)
	movq	%rdx, 24(%rbp)
	.loc 1 4 1
	call	__main
.LVL0:
	.loc 1 5 5
	call	generarArchivo
	.loc 1 6 5
	call	agregarTexto
	.loc 1 15 32
	leaq	.LC0(%rip), %rax
	movq	%rax, -24(%rbp)
	.loc 1 16 9
	movl	$1, -12(%rbp)
	.loc 1 16 37
	movq	-24(%rbp), %rax
	movq	%rax, %rcx
	call	strlen
	.loc 1 16 27
	movl	%eax, -28(%rbp)
	.loc 1 18 10
	leaq	.LC1(%rip), %rdx
	leaq	.LC2(%rip), %rcx
	call	fopen
	movq	%rax, -40(%rbp)
	.loc 1 20 7
	cmpq	$0, -40(%rbp)
	jne	.L3
	.loc 1 21 9
	movl	$1, %ecx
	call	exit
.L6:
	.loc 1 25 14
	movl	$0, -148(%rbp)
	.loc 1 26 15
	leaq	-144(%rbp), %rax
	movq	%rax, -8(%rbp)
	.loc 1 28 14
	jmp	.L4
.L5:
	.loc 1 30 13
	movl	-148(%rbp), %edx
	movl	-12(%rbp), %eax
	movl	%edx, %r8d
	movl	%eax, %edx
	leaq	.LC3(%rip), %rcx
	call	printf
	.loc 1 31 19
	movl	-28(%rbp), %eax
	cltq
	addq	%rax, -8(%rbp)
	.loc 1 32 18
	movl	-148(%rbp), %edx
	movl	-28(%rbp), %eax
	addl	%edx, %eax
	movl	%eax, -148(%rbp)
.L4:
	.loc 1 28 45
	movq	24(%rbp), %rax
	addq	$8, %rax
	.loc 1 28 25
	movq	(%rax), %rdx
	leaq	-148(%rbp), %rcx
	movq	-8(%rbp), %rax
	movq	%rcx, %r8
	movq	%rax, %rcx
	call	Mystrstr
	movq	%rax, -8(%rbp)
	.loc 1 28 14
	cmpq	$0, -8(%rbp)
	jne	.L5
	.loc 1 35 15
	addl	$1, -12(%rbp)
.L3:
	.loc 1 23 11
	movq	-40(%rbp), %rdx
	leaq	-144(%rbp), %rax
	movq	%rdx, %r8
	movl	$100, %edx
	movq	%rax, %rcx
	call	fgets
	.loc 1 23 10
	testq	%rax, %rax
	jne	.L6
	.loc 1 38 5
	leaq	.LC4(%rip), %rcx
	call	system
	.loc 1 40 12
	movl	$0, %eax
	.loc 1 41 1
	addq	$192, %rsp
	popq	%rbp
	.cfi_restore 6
	.cfi_def_cfa 7, 8
	ret
	.cfi_endproc
.LFE17:
	.seh_endproc
.Letext0:
	.file 2 "C:/Program Files/CodeBlocks/MinGW/x86_64-w64-mingw32/include/crtdefs.h"
	.file 3 "C:/Program Files/CodeBlocks/MinGW/x86_64-w64-mingw32/include/stdio.h"
	.file 4 "C:/Program Files/CodeBlocks/MinGW/x86_64-w64-mingw32/include/stdlib.h"
	.file 5 "C:/Program Files/CodeBlocks/MinGW/x86_64-w64-mingw32/include/malloc.h"
	.file 6 "C:/Program Files/CodeBlocks/MinGW/x86_64-w64-mingw32/include/ctype.h"